; ModuleID = 'source-C-CXX/60/133.cpp'
source_filename = "source-C-CXX/60/133.cpp"
target datalayout = "e-m:e-p270:32:32-p271:32:32-p272:64:64-i64:64-f80:128-n8:16:32:64-S128"
target triple = "x86_64-pc-linux-gnu"

%"class.std::ios_base::Init" = type { i8 }
%"class.std::basic_istream" = type { i32 (...)**, i64, %"class.std::basic_ios" }
%"class.std::basic_ios" = type { %"class.std::ios_base", %"class.std::basic_ostream"*, i8, i8, %"class.std::basic_streambuf"*, %"class.std::ctype"*, %"class.std::num_put"*, %"class.std::num_get"* }
%"class.std::ios_base" = type { i32 (...)**, i64, i64, i32, i32, i32, %"struct.std::ios_base::_Callback_list"*, %"struct.std::ios_base::_Words", [8 x %"struct.std::ios_base::_Words"], i32, %"struct.std::ios_base::_Words"*, %"class.std::locale" }
%"struct.std::ios_base::_Callback_list" = type { %"struct.std::ios_base::_Callback_list"*, void (i32, %"class.std::ios_base"*, i32)*, i32, i32 }
%"struct.std::ios_base::_Words" = type { i8*, i64 }
%"class.std::locale" = type { %"class.std::locale::_Impl"* }
%"class.std::locale::_Impl" = type { i32, %"class.std::locale::facet"**, i64, %"class.std::locale::facet"**, i8** }
%"class.std::locale::facet" = type <{ i32 (...)**, i32, [4 x i8] }>
%"class.std::basic_ostream" = type { i32 (...)**, %"class.std::basic_ios" }
%"class.std::basic_streambuf" = type { i32 (...)**, i8*, i8*, i8*, i8*, i8*, i8*, %"class.std::locale" }
%"class.std::ctype" = type <{ %"class.std::locale::facet.base", [4 x i8], %struct.__locale_struct*, i8, [7 x i8], i32*, i32*, i16*, i8, [256 x i8], [256 x i8], i8, [6 x i8] }>
%"class.std::locale::facet.base" = type <{ i32 (...)**, i32 }>
%struct.__locale_struct = type { [13 x %struct.__locale_data*], i16*, i32*, i32*, [13 x i8*] }
%struct.__locale_data = type opaque
%"class.std::num_put" = type { %"class.std::locale::facet.base", [4 x i8] }
%"class.std::num_get" = type { %"class.std::locale::facet.base", [4 x i8] }

@_ZStL8__ioinit = internal global %"class.std::ios_base::Init" zeroinitializer, align 1
@__dso_handle = external hidden global i8
@_ZSt3cin = external global %"class.std::basic_istream", align 8
@_ZSt4cout = external global %"class.std::basic_ostream", align 8
@.str = private unnamed_addr constant [2 x i8] c"1\00", align 1
@llvm.global_ctors = appending global [1 x { i32, void ()*, i8* }] [{ i32, void ()*, i8* } { i32 65535, void ()* @_GLOBAL__sub_I_133.cpp, i8* null }]

declare void @_ZNSt8ios_base4InitC1Ev(%"class.std::ios_base::Init"* nonnull align 1 dereferenceable(1)) unnamed_addr #0

; Function Attrs: nounwind
declare void @_ZNSt8ios_base4InitD1Ev(%"class.std::ios_base::Init"* nonnull align 1 dereferenceable(1)) unnamed_addr #1

; Function Attrs: nofree nounwind
declare i32 @__cxa_atexit(void (i8*)*, i8*, i8*) local_unnamed_addr #2

; Function Attrs: mustprogress norecurse sspstrong uwtable
define dso_local i32 @main() local_unnamed_addr #3 {
  %1 = alloca i32, align 4
  %2 = alloca [20 x i32], align 16
  %3 = bitcast i32* %1 to i8*
  call void @llvm.lifetime.start.p0i8(i64 4, i8* nonnull %3) #9
  %4 = call nonnull align 8 dereferenceable(16) %"class.std::basic_istream"* @_ZNSirsERi(%"class.std::basic_istream"* nonnull align 8 dereferenceable(16) @_ZSt3cin, i32* nonnull align 4 dereferenceable(4) %1)
  %5 = load i32, i32* %1, align 4, !tbaa !5
  %6 = zext i32 %5 to i64
  %7 = call i8* @llvm.stacksave()
  %8 = alloca i32, i64 %6, align 16
  %9 = load i32, i32* %1, align 4, !tbaa !5
  %10 = icmp sgt i32 %9, 0
  br i1 %10, label %11, label %19

11:                                               ; preds = %0, %11
  %12 = phi i64 [ %15, %11 ], [ 0, %0 ]
  %13 = getelementptr inbounds i32, i32* %8, i64 %12
  %14 = call nonnull align 8 dereferenceable(16) %"class.std::basic_istream"* @_ZNSirsERi(%"class.std::basic_istream"* nonnull align 8 dereferenceable(16) @_ZSt3cin, i32* nonnull align 4 dereferenceable(4) %13)
  %15 = add nuw nsw i64 %12, 1
  %16 = load i32, i32* %1, align 4, !tbaa !5
  %17 = sext i32 %16 to i64
  %18 = icmp slt i64 %15, %17
  br i1 %18, label %11, label %19, !llvm.loop !9

19:                                               ; preds = %11, %0
  %20 = phi i32 [ %9, %0 ], [ %16, %11 ]
  %21 = bitcast [20 x i32]* %2 to i8*
  call void @llvm.lifetime.start.p0i8(i64 80, i8* nonnull %21) #9
  call void @llvm.memset.p0i8.i64(i8* noundef nonnull align 16 dereferenceable(80) %21, i8 0, i64 80, i1 false)
  %22 = getelementptr inbounds [20 x i32], [20 x i32]* %2, i64 0, i64 0
  %23 = getelementptr inbounds [20 x i32], [20 x i32]* %2, i64 0, i64 1
  %24 = icmp sgt i32 %20, 0
  br i1 %24, label %25, label %158

25:                                               ; preds = %19
  %26 = getelementptr inbounds [20 x i32], [20 x i32]* %2, i64 0, i64 2
  br label %27

27:                                               ; preds = %25, %151
  %28 = phi i64 [ %154, %151 ], [ 0, %25 ]
  store i32 1, i32* %22, align 16, !tbaa !5
  store i32 1, i32* %23, align 4, !tbaa !5
  %29 = getelementptr inbounds i32, i32* %8, i64 %28
  %30 = load i32, i32* %29, align 4, !tbaa !5
  %31 = icmp slt i32 %30, 3
  br i1 %31, label %42, label %32

32:                                               ; preds = %27
  %33 = zext i32 %30 to i64
  store i32 2, i32* %26, align 8, !tbaa !5
  %34 = icmp eq i32 %30, 3
  br i1 %34, label %117, label %35, !llvm.loop !11

35:                                               ; preds = %32
  %36 = add nsw i64 %33, -3
  %37 = add nsw i64 %33, -4
  %38 = and i64 %36, 3
  %39 = icmp ult i64 %37, 3
  br i1 %39, label %99, label %40

40:                                               ; preds = %35
  %41 = and i64 %36, -4
  br label %70

42:                                               ; preds = %27
  %43 = call nonnull align 8 dereferenceable(8) %"class.std::basic_ostream"* @_ZSt16__ostream_insertIcSt11char_traitsIcEERSt13basic_ostreamIT_T0_ES6_PKS3_l(%"class.std::basic_ostream"* nonnull align 8 dereferenceable(8) @_ZSt4cout, i8* nonnull getelementptr inbounds ([2 x i8], [2 x i8]* @.str, i64 0, i64 0), i64 1)
  %44 = load i8*, i8** bitcast (%"class.std::basic_ostream"* @_ZSt4cout to i8**), align 8, !tbaa !12
  %45 = getelementptr i8, i8* %44, i64 -24
  %46 = bitcast i8* %45 to i64*
  %47 = load i64, i64* %46, align 8
  %48 = add nsw i64 %47, 240
  %49 = getelementptr inbounds i8, i8* bitcast (%"class.std::basic_ostream"* @_ZSt4cout to i8*), i64 %48
  %50 = bitcast i8* %49 to %"class.std::ctype"**
  %51 = load %"class.std::ctype"*, %"class.std::ctype"** %50, align 8, !tbaa !14
  %52 = icmp eq %"class.std::ctype"* %51, null
  br i1 %52, label %53, label %54

53:                                               ; preds = %42
  call void @_ZSt16__throw_bad_castv() #10
  unreachable

54:                                               ; preds = %42
  %55 = getelementptr inbounds %"class.std::ctype", %"class.std::ctype"* %51, i64 0, i32 8
  %56 = load i8, i8* %55, align 8, !tbaa !18
  %57 = icmp eq i8 %56, 0
  br i1 %57, label %61, label %58

58:                                               ; preds = %54
  %59 = getelementptr inbounds %"class.std::ctype", %"class.std::ctype"* %51, i64 0, i32 9, i64 10
  %60 = load i8, i8* %59, align 1, !tbaa !20
  br label %67

61:                                               ; preds = %54
  call void @_ZNKSt5ctypeIcE13_M_widen_initEv(%"class.std::ctype"* nonnull align 8 dereferenceable(570) %51)
  %62 = bitcast %"class.std::ctype"* %51 to i8 (%"class.std::ctype"*, i8)***
  %63 = load i8 (%"class.std::ctype"*, i8)**, i8 (%"class.std::ctype"*, i8)*** %62, align 8, !tbaa !12
  %64 = getelementptr inbounds i8 (%"class.std::ctype"*, i8)*, i8 (%"class.std::ctype"*, i8)** %63, i64 6
  %65 = load i8 (%"class.std::ctype"*, i8)*, i8 (%"class.std::ctype"*, i8)** %64, align 8
  %66 = call signext i8 %65(%"class.std::ctype"* nonnull align 8 dereferenceable(570) %51, i8 signext 10)
  br label %67

67:                                               ; preds = %58, %61
  %68 = phi i8 [ %60, %58 ], [ %66, %61 ]
  %69 = call nonnull align 8 dereferenceable(8) %"class.std::basic_ostream"* @_ZNSo3putEc(%"class.std::basic_ostream"* nonnull align 8 dereferenceable(8) @_ZSt4cout, i8 signext %68)
  br label %151

70:                                               ; preds = %70, %40
  %71 = phi i64 [ 3, %40 ], [ %96, %70 ]
  %72 = phi i32 [ 2, %40 ], [ %94, %70 ]
  %73 = phi i64 [ 2, %40 ], [ %91, %70 ]
  %74 = phi i64 [ %41, %40 ], [ %97, %70 ]
  %75 = add nsw i64 %73, -1
  %76 = getelementptr inbounds [20 x i32], [20 x i32]* %2, i64 0, i64 %75
  %77 = load i32, i32* %76, align 4, !tbaa !5
  %78 = add nsw i32 %77, %72
  %79 = getelementptr inbounds [20 x i32], [20 x i32]* %2, i64 0, i64 %71
  store i32 %78, i32* %79, align 4, !tbaa !5
  %80 = add nuw nsw i64 %71, 1
  %81 = add nsw i64 %71, -1
  %82 = getelementptr inbounds [20 x i32], [20 x i32]* %2, i64 0, i64 %81
  %83 = load i32, i32* %82, align 4, !tbaa !5
  %84 = add nsw i32 %83, %78
  %85 = getelementptr inbounds [20 x i32], [20 x i32]* %2, i64 0, i64 %80
  store i32 %84, i32* %85, align 4, !tbaa !5
  %86 = add nuw nsw i64 %71, 2
  %87 = getelementptr inbounds [20 x i32], [20 x i32]* %2, i64 0, i64 %71
  %88 = load i32, i32* %87, align 4, !tbaa !5
  %89 = add nsw i32 %88, %84
  %90 = getelementptr inbounds [20 x i32], [20 x i32]* %2, i64 0, i64 %86
  store i32 %89, i32* %90, align 4, !tbaa !5
  %91 = add nuw nsw i64 %71, 3
  %92 = getelementptr inbounds [20 x i32], [20 x i32]* %2, i64 0, i64 %80
  %93 = load i32, i32* %92, align 4, !tbaa !5
  %94 = add nsw i32 %93, %89
  %95 = getelementptr inbounds [20 x i32], [20 x i32]* %2, i64 0, i64 %91
  store i32 %94, i32* %95, align 4, !tbaa !5
  %96 = add nuw nsw i64 %71, 4
  %97 = add i64 %74, -4
  %98 = icmp eq i64 %97, 0
  br i1 %98, label %99, label %70, !llvm.loop !11

99:                                               ; preds = %70, %35
  %100 = phi i64 [ 3, %35 ], [ %96, %70 ]
  %101 = phi i32 [ 2, %35 ], [ %94, %70 ]
  %102 = phi i64 [ 2, %35 ], [ %91, %70 ]
  %103 = icmp eq i64 %38, 0
  br i1 %103, label %117, label %104

104:                                              ; preds = %99, %104
  %105 = phi i64 [ %114, %104 ], [ %100, %99 ]
  %106 = phi i32 [ %112, %104 ], [ %101, %99 ]
  %107 = phi i64 [ %105, %104 ], [ %102, %99 ]
  %108 = phi i64 [ %115, %104 ], [ %38, %99 ]
  %109 = add nsw i64 %107, -1
  %110 = getelementptr inbounds [20 x i32], [20 x i32]* %2, i64 0, i64 %109
  %111 = load i32, i32* %110, align 4, !tbaa !5
  %112 = add nsw i32 %111, %106
  %113 = getelementptr inbounds [20 x i32], [20 x i32]* %2, i64 0, i64 %105
  store i32 %112, i32* %113, align 4, !tbaa !5
  %114 = add nuw nsw i64 %105, 1
  %115 = add i64 %108, -1
  %116 = icmp eq i64 %115, 0
  br i1 %116, label %117, label %104, !llvm.loop !21

117:                                              ; preds = %99, %104, %32
  %118 = add nsw i32 %30, -1
  %119 = sext i32 %118 to i64
  %120 = getelementptr inbounds [20 x i32], [20 x i32]* %2, i64 0, i64 %119
  %121 = load i32, i32* %120, align 4, !tbaa !5
  %122 = call nonnull align 8 dereferenceable(8) %"class.std::basic_ostream"* @_ZNSolsEi(%"class.std::basic_ostream"* nonnull align 8 dereferenceable(8) @_ZSt4cout, i32 %121)
  %123 = bitcast %"class.std::basic_ostream"* %122 to i8**
  %124 = load i8*, i8** %123, align 8, !tbaa !12
  %125 = getelementptr i8, i8* %124, i64 -24
  %126 = bitcast i8* %125 to i64*
  %127 = load i64, i64* %126, align 8
  %128 = bitcast %"class.std::basic_ostream"* %122 to i8*
  %129 = add nsw i64 %127, 240
  %130 = getelementptr inbounds i8, i8* %128, i64 %129
  %131 = bitcast i8* %130 to %"class.std::ctype"**
  %132 = load %"class.std::ctype"*, %"class.std::ctype"** %131, align 8, !tbaa !14
  %133 = icmp eq %"class.std::ctype"* %132, null
  br i1 %133, label %134, label %135

134:                                              ; preds = %117
  call void @_ZSt16__throw_bad_castv() #10
  unreachable

135:                                              ; preds = %117
  %136 = getelementptr inbounds %"class.std::ctype", %"class.std::ctype"* %132, i64 0, i32 8
  %137 = load i8, i8* %136, align 8, !tbaa !18
  %138 = icmp eq i8 %137, 0
  br i1 %138, label %142, label %139

139:                                              ; preds = %135
  %140 = getelementptr inbounds %"class.std::ctype", %"class.std::ctype"* %132, i64 0, i32 9, i64 10
  %141 = load i8, i8* %140, align 1, !tbaa !20
  br label %148

142:                                              ; preds = %135
  call void @_ZNKSt5ctypeIcE13_M_widen_initEv(%"class.std::ctype"* nonnull align 8 dereferenceable(570) %132)
  %143 = bitcast %"class.std::ctype"* %132 to i8 (%"class.std::ctype"*, i8)***
  %144 = load i8 (%"class.std::ctype"*, i8)**, i8 (%"class.std::ctype"*, i8)*** %143, align 8, !tbaa !12
  %145 = getelementptr inbounds i8 (%"class.std::ctype"*, i8)*, i8 (%"class.std::ctype"*, i8)** %144, i64 6
  %146 = load i8 (%"class.std::ctype"*, i8)*, i8 (%"class.std::ctype"*, i8)** %145, align 8
  %147 = call signext i8 %146(%"class.std::ctype"* nonnull align 8 dereferenceable(570) %132, i8 signext 10)
  br label %148

148:                                              ; preds = %139, %142
  %149 = phi i8 [ %141, %139 ], [ %147, %142 ]
  %150 = call nonnull align 8 dereferenceable(8) %"class.std::basic_ostream"* @_ZNSo3putEc(%"class.std::basic_ostream"* nonnull align 8 dereferenceable(8) %122, i8 signext %149)
  br label %151

151:                                              ; preds = %67, %148
  %152 = phi %"class.std::basic_ostream"* [ %69, %67 ], [ %150, %148 ]
  %153 = call nonnull align 8 dereferenceable(8) %"class.std::basic_ostream"* @_ZNSo5flushEv(%"class.std::basic_ostream"* nonnull align 8 dereferenceable(8) %152)
  %154 = add nuw nsw i64 %28, 1
  %155 = load i32, i32* %1, align 4, !tbaa !5
  %156 = sext i32 %155 to i64
  %157 = icmp slt i64 %154, %156
  br i1 %157, label %27, label %158, !llvm.loop !23

158:                                              ; preds = %151, %19
  call void @llvm.lifetime.end.p0i8(i64 80, i8* nonnull %21) #9
  call void @llvm.stackrestore(i8* %7)
  call void @llvm.lifetime.end.p0i8(i64 4, i8* nonnull %3) #9
  ret i32 0
}

; Function Attrs: argmemonly mustprogress nofree nosync nounwind willreturn
declare void @llvm.lifetime.start.p0i8(i64 immarg, i8* nocapture) #4

declare nonnull align 8 dereferenceable(16) %"class.std::basic_istream"* @_ZNSirsERi(%"class.std::basic_istream"* nonnull align 8 dereferenceable(16), i32* nonnull align 4 dereferenceable(4)) local_unnamed_addr #0

; Function Attrs: mustprogress nofree nosync nounwind willreturn
declare i8* @llvm.stacksave() #5

; Function Attrs: argmemonly mustprogress nofree nounwind willreturn writeonly
declare void @llvm.memset.p0i8.i64(i8* nocapture writeonly, i8, i64, i1 immarg) #6

declare nonnull align 8 dereferenceable(8) %"class.std::basic_ostream"* @_ZNSolsEi(%"class.std::basic_ostream"* nonnull align 8 dereferenceable(8), i32) local_unnamed_addr #0

; Function Attrs: argmemonly mustprogress nofree nosync nounwind willreturn
declare void @llvm.lifetime.end.p0i8(i64 immarg, i8* nocapture) #4

; Function Attrs: mustprogress nofree nosync nounwind willreturn
declare void @llvm.stackrestore(i8*) #5

declare nonnull align 8 dereferenceable(8) %"class.std::basic_ostream"* @_ZSt16__ostream_insertIcSt11char_traitsIcEERSt13basic_ostreamIT_T0_ES6_PKS3_l(%"class.std::basic_ostream"* nonnull align 8 dereferenceable(8), i8*, i64) local_unnamed_addr #0

declare nonnull align 8 dereferenceable(8) %"class.std::basic_ostream"* @_ZNSo3putEc(%"class.std::basic_ostream"* nonnull align 8 dereferenceable(8), i8 signext) local_unnamed_addr #0

declare nonnull align 8 dereferenceable(8) %"class.std::basic_ostream"* @_ZNSo5flushEv(%"class.std::basic_ostream"* nonnull align 8 dereferenceable(8)) local_unnamed_addr #0

; Function Attrs: noreturn
declare void @_ZSt16__throw_bad_castv() local_unnamed_addr #7

declare void @_ZNKSt5ctypeIcE13_M_widen_initEv(%"class.std::ctype"* nonnull align 8 dereferenceable(570)) local_unnamed_addr #0

; Function Attrs: sspstrong uwtable
define internal void @_GLOBAL__sub_I_133.cpp() #8 section ".text.startup" {
  tail call void @_ZNSt8ios_base4InitC1Ev(%"class.std::ios_base::Init"* nonnull align 1 dereferenceable(1) @_ZStL8__ioinit)
  %1 = tail call i32 @__cxa_atexit(void (i8*)* bitcast (void (%"class.std::ios_base::Init"*)* @_ZNSt8ios_base4InitD1Ev to void (i8*)*), i8* getelementptr inbounds (%"class.std::ios_base::Init", %"class.std::ios_base::Init"* @_ZStL8__ioinit, i64 0, i32 0), i8* nonnull @__dso_handle) #9
  ret void
}


!llvm.module.flags = !{!0, !1, !2, !3}
!llvm.ident = !{!4}

!0 = !{i32 1, !"wchar_size", i32 4}
!1 = !{i32 7, !"PIC Level", i32 2}
!2 = !{i32 7, !"PIE Level", i32 2}
!3 = !{i32 7, !"uwtable", i32 1}
!4 = !{!"clang version 13.0.0"}
!5 = !{!6, !6, i64 0}
!6 = !{!"int", !7, i64 0}
!7 = !{!"omnipotent char", !8, i64 0}
!8 = !{!"Simple C++ TBAA"}
!9 = distinct !{!9, !10}
!10 = !{!"llvm.loop.mustprogress"}
!11 = distinct !{!11, !10}
!12 = !{!13, !13, i64 0}
!13 = !{!"vtable pointer", !8, i64 0}
!14 = !{!15, !16, i64 240}
!15 = !{!"_ZTSSt9basic_iosIcSt11char_traitsIcEE", !16, i64 216, !7, i64 224, !17, i64 225, !16, i64 232, !16, i64 240, !16, i64 248, !16, i64 256}
!16 = !{!"any pointer", !7, i64 0}
!17 = !{!"bool", !7, i64 0}
!18 = !{!19, !7, i64 56}
!19 = !{!"_ZTSSt5ctypeIcE", !16, i64 16, !17, i64 24, !16, i64 32, !16, i64 40, !16, i64 48, !7, i64 56, !7, i64 57, !7, i64 313, !7, i64 569}
!20 = !{!7, !7, i64 0}
!21 = distinct !{!21, !22}
!22 = !{!"llvm.loop.unroll.disable"}
!23 = distinct !{!23, !10}
